target datalayout = "e-m:e-p270:32:32-p271:32:32-p272:64:64-i64:64-i128:128-f80:128-n8:16:32:64-S128"
target triple = "x86_64-pc-linux-gnu"

%"class.casadi::UniversalNodeOwner" = type <{ ptr, i8, [7 x i8] }>
%"class.casadi::SharedObjectInternal" = type { ptr, i64, ptr }

; Function Attrs: mustprogress nounwind uwtable
define hidden void @_ZN6casadi18UniversalNodeOwnerC2EPNS_20SharedObjectInternalE(ptr noundef nonnull align 8 dereferenceable(9) %0, ptr noundef %1) unnamed_addr #5 align 2 {
  %3 = alloca ptr, align 8
  %4 = alloca ptr, align 8
  store ptr %0, ptr %3, align 8
  store ptr %1, ptr %4, align 8
  %5 = load ptr, ptr %3, align 8
  %6 = getelementptr inbounds %"class.casadi::UniversalNodeOwner", ptr %5, i32 0, i32 0
  %7 = load ptr, ptr %4, align 8
  store ptr %7, ptr %6, align 8
  %8 = getelementptr inbounds %"class.casadi::UniversalNodeOwner", ptr %5, i32 0, i32 1
  store i8 0, ptr %8, align 8
  %9 = getelementptr inbounds %"class.casadi::UniversalNodeOwner", ptr %5, i32 0, i32 0
  %10 = load ptr, ptr %9, align 8
  %11 = icmp ne ptr %10, null
  br i1 %11, label %12, label %17

12:                                               ; preds = %2
  %13 = load ptr, ptr %4, align 8
  %14 = getelementptr inbounds %"class.casadi::SharedObjectInternal", ptr %13, i32 0, i32 1
  %15 = load i64, ptr %14, align 8
  %16 = add nsw i64 %15, 1
  store i64 %16, ptr %14, align 8
  br label %17

17:                                               ; preds = %12, %2
  ret void
}